target datalayout = "e-m:e-p270:32:32-p271:32:32-p272:64:64-i64:64-i128:128-f80:128-n8:16:32:64-S128"
target triple = "x86_64-pc-linux-gnu"

%struct.AVFilterContext = type { ptr, ptr, ptr, ptr, ptr, i32, ptr, ptr, i32, ptr, ptr, i32, i32, ptr, ptr, ptr, ptr, i32, ptr, i32, i32 }
%struct.MaskFunContext = type { ptr, i32, i32, i32, i32, i32, [4 x i32], [4 x i32], [4 x i32], i32, i32, i32, i64, ptr, ptr, ptr, ptr }
%struct.AVChannelLayout = type { i32, i32, %union.anon.1, ptr }
%union.anon.1 = type { i64 }
%struct.AVRational = type { i32, i32 }
%struct.AVFrame = type { [8 x ptr], [8 x i32], ptr, i32, i32, i32, i32, i32, %struct.AVRational, i64, i64, %struct.AVRational, i32, ptr, i32, i32, [8 x ptr], ptr, i32, ptr, i32, i32, i32, i32, i32, i32, i32, i64, ptr, i32, ptr, ptr, i64, i64, i64, i64, ptr, %struct.AVChannelLayout, i64 }

; Function Attrs: nounwind uwtable
define internal i32 @maskfun16(ptr noundef %0, ptr noundef %1, i32 noundef %2, i32 noundef %3) #1 {
  %5 = alloca ptr, align 8
  %6 = alloca ptr, align 8
  %7 = alloca i32, align 4
  %8 = alloca i32, align 4
  %9 = alloca ptr, align 8
  %10 = alloca ptr, align 8
  %11 = alloca ptr, align 8
  %12 = alloca i32, align 4
  %13 = alloca i32, align 4
  %14 = alloca i32, align 4
  %15 = alloca i32, align 4
  %16 = alloca i32, align 4
  %17 = alloca i32, align 4
  %18 = alloca i32, align 4
  %19 = alloca i32, align 4
  %20 = alloca i32, align 4
  %21 = alloca i32, align 4
  %22 = alloca ptr, align 8
  %23 = alloca ptr, align 8
  %24 = alloca i32, align 4
  %25 = alloca i32, align 4
  %26 = alloca i32, align 4
  store ptr %0, ptr %5, align 8, !tbaa !4
  store ptr %1, ptr %6, align 8, !tbaa !65
  store i32 %2, ptr %7, align 4, !tbaa !25
  store i32 %3, ptr %8, align 4, !tbaa !25
  call void @llvm.lifetime.start.p0(i64 8, ptr %9) #7
  %27 = load ptr, ptr %5, align 8, !tbaa !4
  %28 = getelementptr inbounds nuw %struct.AVFilterContext, ptr %27, i32 0, i32 9
  %29 = load ptr, ptr %28, align 8, !tbaa !9
  store ptr %29, ptr %9, align 8, !tbaa !22
  call void @llvm.lifetime.start.p0(i64 8, ptr %10) #7
  %30 = load ptr, ptr %9, align 8, !tbaa !22
  %31 = getelementptr inbounds nuw %struct.MaskFunContext, ptr %30, i32 0, i32 13
  %32 = load ptr, ptr %31, align 8, !tbaa !52
  store ptr %32, ptr %10, align 8, !tbaa !33
  call void @llvm.lifetime.start.p0(i64 8, ptr %11) #7
  %33 = load ptr, ptr %6, align 8, !tbaa !65
  store ptr %33, ptr %11, align 8, !tbaa !33
  call void @llvm.lifetime.start.p0(i64 4, ptr %12) #7
  %34 = load ptr, ptr %9, align 8, !tbaa !22
  %35 = getelementptr inbounds nuw %struct.MaskFunContext, ptr %34, i32 0, i32 1
  %36 = load i32, ptr %35, align 8, !tbaa !66
  store i32 %36, ptr %12, align 4, !tbaa !25
  call void @llvm.lifetime.start.p0(i64 4, ptr %13) #7
  %37 = load ptr, ptr %9, align 8, !tbaa !22
  %38 = getelementptr inbounds nuw %struct.MaskFunContext, ptr %37, i32 0, i32 2
  %39 = load i32, ptr %38, align 4, !tbaa !67
  store i32 %39, ptr %13, align 4, !tbaa !25
  call void @llvm.lifetime.start.p0(i64 4, ptr %14) #7
  %40 = load ptr, ptr %9, align 8, !tbaa !22
  %41 = getelementptr inbounds nuw %struct.MaskFunContext, ptr %40, i32 0, i32 11
  %42 = load i32, ptr %41, align 4, !tbaa !64
  store i32 %42, ptr %14, align 4, !tbaa !25
  call void @llvm.lifetime.start.p0(i64 4, ptr %15) #7
  store i32 0, ptr %15, align 4, !tbaa !25
  br label %43

43:                                               ; preds = %190, %4
  %44 = load i32, ptr %15, align 4, !tbaa !25
  %45 = load ptr, ptr %9, align 8, !tbaa !22
  %46 = getelementptr inbounds nuw %struct.MaskFunContext, ptr %45, i32 0, i32 9
  %47 = load i32, ptr %46, align 4, !tbaa !57
  %48 = icmp slt i32 %44, %47
  br i1 %48, label %49, label %193

49:                                               ; preds = %43
  call void @llvm.lifetime.start.p0(i64 4, ptr %16) #7
  %50 = load ptr, ptr %10, align 8, !tbaa !33
  %51 = getelementptr inbounds nuw %struct.AVFrame, ptr %50, i32 0, i32 1
  %52 = load i32, ptr %15, align 4, !tbaa !25
  %53 = sext i32 %52 to i64
  %54 = getelementptr inbounds [8 x i32], ptr %51, i64 0, i64 %53
  %55 = load i32, ptr %54, align 4, !tbaa !25
  %56 = sdiv i32 %55, 2
  store i32 %56, ptr %16, align 4, !tbaa !25
  call void @llvm.lifetime.start.p0(i64 4, ptr %17) #7
  %57 = load ptr, ptr %11, align 8, !tbaa !33
  %58 = getelementptr inbounds nuw %struct.AVFrame, ptr %57, i32 0, i32 1
  %59 = load i32, ptr %15, align 4, !tbaa !25
  %60 = sext i32 %59 to i64
  %61 = getelementptr inbounds [8 x i32], ptr %58, i64 0, i64 %60
  %62 = load i32, ptr %61, align 4, !tbaa !25
  %63 = sdiv i32 %62, 2
  store i32 %63, ptr %17, align 4, !tbaa !25
  call void @llvm.lifetime.start.p0(i64 4, ptr %18) #7
  %64 = load ptr, ptr %9, align 8, !tbaa !22
  %65 = getelementptr inbounds nuw %struct.MaskFunContext, ptr %64, i32 0, i32 7
  %66 = load i32, ptr %15, align 4, !tbaa !25
  %67 = sext i32 %66 to i64
  %68 = getelementptr inbounds [4 x i32], ptr %65, i64 0, i64 %67
  %69 = load i32, ptr %68, align 4, !tbaa !25
  store i32 %69, ptr %18, align 4, !tbaa !25
  call void @llvm.lifetime.start.p0(i64 4, ptr %19) #7
  %70 = load ptr, ptr %9, align 8, !tbaa !22
  %71 = getelementptr inbounds nuw %struct.MaskFunContext, ptr %70, i32 0, i32 8
  %72 = load i32, ptr %15, align 4, !tbaa !25
  %73 = sext i32 %72 to i64
  %74 = getelementptr inbounds [4 x i32], ptr %71, i64 0, i64 %73
  %75 = load i32, ptr %74, align 4, !tbaa !25
  store i32 %75, ptr %19, align 4, !tbaa !25
  call void @llvm.lifetime.start.p0(i64 4, ptr %20) #7
  %76 = load i32, ptr %19, align 4, !tbaa !25
  %77 = load i32, ptr %7, align 4, !tbaa !25
  %78 = mul nsw i32 %76, %77
  %79 = load i32, ptr %8, align 4, !tbaa !25
  %80 = sdiv i32 %78, %79
  store i32 %80, ptr %20, align 4, !tbaa !25
  call void @llvm.lifetime.start.p0(i64 4, ptr %21) #7
  %81 = load i32, ptr %19, align 4, !tbaa !25
  %82 = load i32, ptr %7, align 4, !tbaa !25
  %83 = add nsw i32 %82, 1
  %84 = mul nsw i32 %81, %83
  %85 = load i32, ptr %8, align 4, !tbaa !25
  %86 = sdiv i32 %84, %85
  store i32 %86, ptr %21, align 4, !tbaa !25
  call void @llvm.lifetime.start.p0(i64 8, ptr %22) #7
  %87 = load ptr, ptr %10, align 8, !tbaa !33
  %88 = getelementptr inbounds nuw %struct.AVFrame, ptr %87, i32 0, i32 0
  %89 = load i32, ptr %15, align 4, !tbaa !25
  %90 = sext i32 %89 to i64
  %91 = getelementptr inbounds [8 x ptr], ptr %88, i64 0, i64 %90
  %92 = load ptr, ptr %91, align 8, !tbaa !24
  %93 = load i32, ptr %20, align 4, !tbaa !25
  %94 = load i32, ptr %16, align 4, !tbaa !25
  %95 = mul nsw i32 %93, %94
  %96 = sext i32 %95 to i64
  %97 = getelementptr inbounds i16, ptr %92, i64 %96
  store ptr %97, ptr %22, align 8, !tbaa !79
  call void @llvm.lifetime.start.p0(i64 8, ptr %23) #7
  %98 = load ptr, ptr %11, align 8, !tbaa !33
  %99 = getelementptr inbounds nuw %struct.AVFrame, ptr %98, i32 0, i32 0
  %100 = load i32, ptr %15, align 4, !tbaa !25
  %101 = sext i32 %100 to i64
  %102 = getelementptr inbounds [8 x ptr], ptr %99, i64 0, i64 %101
  %103 = load ptr, ptr %102, align 8, !tbaa !24
  %104 = load i32, ptr %20, align 4, !tbaa !25
  %105 = load i32, ptr %17, align 4, !tbaa !25
  %106 = mul nsw i32 %104, %105
  %107 = sext i32 %106 to i64
  %108 = getelementptr inbounds i16, ptr %103, i64 %107
  store ptr %108, ptr %23, align 8, !tbaa !79
  %109 = load i32, ptr %15, align 4, !tbaa !25
  %110 = shl i32 1, %109
  %111 = load ptr, ptr %9, align 8, !tbaa !22
  %112 = getelementptr inbounds nuw %struct.MaskFunContext, ptr %111, i32 0, i32 3
  %113 = load i32, ptr %112, align 8, !tbaa !68
  %114 = and i32 %110, %113
  %115 = icmp ne i32 %114, 0
  br i1 %115, label %117, label %116

116:                                              ; preds = %49
  store i32 4, ptr %24, align 4
  br label %187

117:                                              ; preds = %49
  call void @llvm.lifetime.start.p0(i64 4, ptr %25) #7
  %118 = load i32, ptr %20, align 4, !tbaa !25
  store i32 %118, ptr %25, align 4, !tbaa !25
  br label %119

119:                                              ; preds = %183, %117
  %120 = load i32, ptr %25, align 4, !tbaa !25
  %121 = load i32, ptr %21, align 4, !tbaa !25
  %122 = icmp slt i32 %120, %121
  br i1 %122, label %124, label %123

123:                                              ; preds = %119
  store i32 5, ptr %24, align 4
  call void @llvm.lifetime.end.p0(i64 4, ptr %25) #7
  br label %186

124:                                              ; preds = %119
  call void @llvm.lifetime.start.p0(i64 4, ptr %26) #7
  store i32 0, ptr %26, align 4, !tbaa !25
  br label %125

125:                                              ; preds = %171, %124
  %126 = load i32, ptr %26, align 4, !tbaa !25
  %127 = load i32, ptr %18, align 4, !tbaa !25
  %128 = icmp slt i32 %126, %127
  br i1 %128, label %130, label %129

129:                                              ; preds = %125
  store i32 8, ptr %24, align 4
  call void @llvm.lifetime.end.p0(i64 4, ptr %26) #7
  br label %174

130:                                              ; preds = %125
  %131 = load ptr, ptr %22, align 8, !tbaa !79
  %132 = load i32, ptr %26, align 4, !tbaa !25
  %133 = sext i32 %132 to i64
  %134 = getelementptr inbounds i16, ptr %131, i64 %133
  %135 = load i16, ptr %134, align 2, !tbaa !81
  %136 = load ptr, ptr %23, align 8, !tbaa !79
  %137 = load i32, ptr %26, align 4, !tbaa !25
  %138 = sext i32 %137 to i64
  %139 = getelementptr inbounds i16, ptr %136, i64 %138
  store i16 %135, ptr %139, align 2, !tbaa !81
  %140 = load ptr, ptr %23, align 8, !tbaa !79
  %141 = load i32, ptr %26, align 4, !tbaa !25
  %142 = sext i32 %141 to i64
  %143 = getelementptr inbounds i16, ptr %140, i64 %142
  %144 = load i16, ptr %143, align 2, !tbaa !81
  %145 = zext i16 %144 to i32
  %146 = load i32, ptr %12, align 4, !tbaa !25
  %147 = icmp sle i32 %145, %146
  br i1 %147, label %148, label %153

148:                                              ; preds = %130
  %149 = load ptr, ptr %23, align 8, !tbaa !79
  %150 = load i32, ptr %26, align 4, !tbaa !25
  %151 = sext i32 %150 to i64
  %152 = getelementptr inbounds i16, ptr %149, i64 %151
  store i16 0, ptr %152, align 2, !tbaa !81
  br label %170

153:                                              ; preds = %130
  %154 = load ptr, ptr %23, align 8, !tbaa !79
  %155 = load i32, ptr %26, align 4, !tbaa !25
  %156 = sext i32 %155 to i64
  %157 = getelementptr inbounds i16, ptr %154, i64 %156
  %158 = load i16, ptr %157, align 2, !tbaa !81
  %159 = zext i16 %158 to i32
  %160 = load i32, ptr %13, align 4, !tbaa !25
  %161 = icmp sgt i32 %159, %160
  br i1 %161, label %162, label %169

162:                                              ; preds = %153
  %163 = load i32, ptr %14, align 4, !tbaa !25
  %164 = trunc i32 %163 to i16
  %165 = load ptr, ptr %23, align 8, !tbaa !79
  %166 = load i32, ptr %26, align 4, !tbaa !25
  %167 = sext i32 %166 to i64
  %168 = getelementptr inbounds i16, ptr %165, i64 %167
  store i16 %164, ptr %168, align 2, !tbaa !81
  br label %169

169:                                              ; preds = %162, %153
  br label %170

170:                                              ; preds = %169, %148
  br label %171

171:                                              ; preds = %170
  %172 = load i32, ptr %26, align 4, !tbaa !25
  %173 = add nsw i32 %172, 1
  store i32 %173, ptr %26, align 4, !tbaa !25
  br label %125, !llvm.loop !83

174:                                              ; preds = %129
  %175 = load i32, ptr %16, align 4, !tbaa !25
  %176 = load ptr, ptr %22, align 8, !tbaa !79
  %177 = sext i32 %175 to i64
  %178 = getelementptr inbounds i16, ptr %176, i64 %177
  store ptr %178, ptr %22, align 8, !tbaa !79
  %179 = load i32, ptr %17, align 4, !tbaa !25
  %180 = load ptr, ptr %23, align 8, !tbaa !79
  %181 = sext i32 %179 to i64
  %182 = getelementptr inbounds i16, ptr %180, i64 %181
  store ptr %182, ptr %23, align 8, !tbaa !79
  br label %183

183:                                              ; preds = %174
  %184 = load i32, ptr %25, align 4, !tbaa !25
  %185 = add nsw i32 %184, 1
  store i32 %185, ptr %25, align 4, !tbaa !25
  br label %119, !llvm.loop !84

186:                                              ; preds = %123
  store i32 0, ptr %24, align 4
  br label %187

187:                                              ; preds = %186, %116
  call void @llvm.lifetime.end.p0(i64 8, ptr %23) #7
  call void @llvm.lifetime.end.p0(i64 8, ptr %22) #7
  call void @llvm.lifetime.end.p0(i64 4, ptr %21) #7
  call void @llvm.lifetime.end.p0(i64 4, ptr %20) #7
  call void @llvm.lifetime.end.p0(i64 4, ptr %19) #7
  call void @llvm.lifetime.end.p0(i64 4, ptr %18) #7
  call void @llvm.lifetime.end.p0(i64 4, ptr %17) #7
  call void @llvm.lifetime.end.p0(i64 4, ptr %16) #7
  %188 = load i32, ptr %24, align 4
  switch i32 %188, label %194 [
    i32 0, label %189
    i32 4, label %190
  ]

189:                                              ; preds = %187
  br label %190

190:                                              ; preds = %189, %187
  %191 = load i32, ptr %15, align 4, !tbaa !25
  %192 = add nsw i32 %191, 1
  store i32 %192, ptr %15, align 4, !tbaa !25
  br label %43, !llvm.loop !85

193:                                              ; preds = %43
  store i32 1, ptr %24, align 4
  call void @llvm.lifetime.end.p0(i64 4, ptr %15) #7
  call void @llvm.lifetime.end.p0(i64 4, ptr %14) #7
  call void @llvm.lifetime.end.p0(i64 4, ptr %13) #7
  call void @llvm.lifetime.end.p0(i64 4, ptr %12) #7
  call void @llvm.lifetime.end.p0(i64 8, ptr %11) #7
  call void @llvm.lifetime.end.p0(i64 8, ptr %10) #7
  call void @llvm.lifetime.end.p0(i64 8, ptr %9) #7
  ret i32 0

194:                                              ; preds = %187
  unreachable
}