; Function Attrs: nofree norecurse nosync nounwind memory(readwrite, inaccessiblemem: none) uwtable
define internal noundef i32 @maskfun16(ptr noundef readonly captures(none) %0, ptr noundef readonly captures(none) %1, i32 noundef %2, i32 noundef %3) #4 {
  %5 = getelementptr inbounds nuw i8, ptr %0, i64 72
  %6 = load ptr, ptr %5, align 8, !tbaa !4
  %7 = getelementptr inbounds nuw i8, ptr %6, i64 96
  %8 = load ptr, ptr %7, align 8, !tbaa !63
  %9 = getelementptr inbounds nuw i8, ptr %6, i64 8
  %10 = load i32, ptr %9, align 8, !tbaa !71
  %11 = getelementptr inbounds nuw i8, ptr %6, i64 12
  %12 = load i32, ptr %11, align 4, !tbaa !72
  %13 = getelementptr inbounds nuw i8, ptr %6, i64 76
  %14 = load i32, ptr %13, align 4, !tbaa !26
  %15 = icmp sgt i32 %14, 0
  br i1 %15, label %.lr.ph, label %._crit_edge

.lr.ph:                                           ; preds = %4
  %16 = getelementptr inbounds nuw i8, ptr %6, i64 84
  %17 = load i32, ptr %16, align 4, !tbaa !31
  %18 = getelementptr inbounds nuw i8, ptr %8, i64 64
  %19 = getelementptr inbounds nuw i8, ptr %1, i64 64
  %20 = getelementptr inbounds nuw i8, ptr %6, i64 44
  %21 = getelementptr inbounds nuw i8, ptr %6, i64 60
  %22 = add nsw i32 %2, 1
  %23 = getelementptr inbounds nuw i8, ptr %6, i64 16
  %24 = load i32, ptr %23, align 8, !tbaa !27
  %25 = trunc i32 %17 to i16
  %wide.trip.count75 = zext nneg i32 %14 to i64
  br label %26

26:                                               ; preds = %.lr.ph, %.loopexit
  %indvars.iv72 = phi i64 [ 0, %.lr.ph ], [ %indvars.iv.next73, %.loopexit ]
  %27 = getelementptr inbounds nuw [8 x i32], ptr %18, i64 0, i64 %indvars.iv72
  %28 = load i32, ptr %27, align 4, !tbaa !28
  %29 = sdiv i32 %28, 2
  %30 = getelementptr inbounds nuw [8 x i32], ptr %19, i64 0, i64 %indvars.iv72
  %31 = load i32, ptr %30, align 4, !tbaa !28
  %32 = sdiv i32 %31, 2
  %33 = getelementptr inbounds nuw [4 x i32], ptr %20, i64 0, i64 %indvars.iv72
  %34 = load i32, ptr %33, align 4, !tbaa !28
  %35 = getelementptr inbounds nuw [4 x i32], ptr %21, i64 0, i64 %indvars.iv72
  %36 = load i32, ptr %35, align 4, !tbaa !28
  %37 = mul nsw i32 %36, %22
  %38 = sdiv i32 %37, %3
  %39 = trunc nuw nsw i64 %indvars.iv72 to i32
  %40 = shl nuw i32 1, %39
  %41 = and i32 %24, %40
  %.not = icmp eq i32 %41, 0
  br i1 %.not, label %.loopexit, label %42

42:                                               ; preds = %26
  %43 = mul nsw i32 %36, %2
  %44 = sdiv i32 %43, %3
  %45 = icmp slt i32 %44, %38
  br i1 %45, label %.preheader.lr.ph, label %.loopexit

.preheader.lr.ph:                                 ; preds = %42
  %46 = icmp sgt i32 %34, 0
  %47 = sext i32 %29 to i64
  %48 = sext i32 %32 to i64
  br i1 %46, label %.preheader.us.preheader, label %.loopexit

.preheader.us.preheader:                          ; preds = %.preheader.lr.ph
  %49 = getelementptr inbounds nuw [8 x ptr], ptr %1, i64 0, i64 %indvars.iv72
  %50 = load ptr, ptr %49, align 8, !tbaa !34
  %51 = mul nsw i32 %44, %32
  %52 = sext i32 %51 to i64
  %53 = getelementptr inbounds i16, ptr %50, i64 %52
  %54 = getelementptr inbounds nuw [8 x ptr], ptr %8, i64 0, i64 %indvars.iv72
  %55 = load ptr, ptr %54, align 8, !tbaa !34
  %56 = mul nsw i32 %44, %29
  %57 = sext i32 %56 to i64
  %58 = getelementptr inbounds i16, ptr %55, i64 %57
  %wide.trip.count = zext nneg i32 %34 to i64
  br label %.preheader.us

.preheader.us:                                    ; preds = %.preheader.us.preheader, %._crit_edge.us
  %.05867.us = phi i32 [ %69, %._crit_edge.us ], [ %44, %.preheader.us.preheader ]
  %.05966.us = phi ptr [ %68, %._crit_edge.us ], [ %53, %.preheader.us.preheader ]
  %.06065.us = phi ptr [ %67, %._crit_edge.us ], [ %58, %.preheader.us.preheader ]
  br label %59

59:                                               ; preds = %.preheader.us, %66
  %indvars.iv = phi i64 [ 0, %.preheader.us ], [ %indvars.iv.next, %66 ]
  %60 = getelementptr inbounds nuw i16, ptr %.06065.us, i64 %indvars.iv
  %61 = load i16, ptr %60, align 2, !tbaa !37
  %62 = getelementptr inbounds nuw i16, ptr %.05966.us, i64 %indvars.iv
  store i16 %61, ptr %62, align 2, !tbaa !37
  %63 = zext i16 %61 to i32
  %.not63.us = icmp slt i32 %10, %63
  br i1 %.not63.us, label %64, label %.sink.split

64:                                               ; preds = %59
  %65 = icmp slt i32 %12, %63
  br i1 %65, label %.sink.split, label %66

.sink.split:                                      ; preds = %64, %59
  %.sink = phi i16 [ 0, %59 ], [ %25, %64 ]
  store i16 %.sink, ptr %62, align 2, !tbaa !37
  br label %66

66:                                               ; preds = %.sink.split, %64
  %indvars.iv.next = add nuw nsw i64 %indvars.iv, 1
  %exitcond.not = icmp eq i64 %indvars.iv.next, %wide.trip.count
  br i1 %exitcond.not, label %._crit_edge.us, label %59, !llvm.loop !80

._crit_edge.us:                                   ; preds = %66
  %67 = getelementptr inbounds i16, ptr %.06065.us, i64 %47
  %68 = getelementptr inbounds i16, ptr %.05966.us, i64 %48
  %69 = add nsw i32 %.05867.us, 1
  %exitcond71.not = icmp eq i32 %69, %38
  br i1 %exitcond71.not, label %.loopexit, label %.preheader.us, !llvm.loop !81

.loopexit:                                        ; preds = %._crit_edge.us, %.preheader.lr.ph, %42, %26
  %indvars.iv.next73 = add nuw nsw i64 %indvars.iv72, 1
  %exitcond76.not = icmp eq i64 %indvars.iv.next73, %wide.trip.count75
  br i1 %exitcond76.not, label %._crit_edge, label %26, !llvm.loop !82

._crit_edge:                                      ; preds = %.loopexit, %4
  ret i32 0
}